	.file	"main.5732f73d3dd865d-cgu.0"
	.section	.text._ZN3std2rt10lang_start17h2c2a12aecd0024c5E,"ax",@progbits
	.hidden	_ZN3std2rt10lang_start17h2c2a12aecd0024c5E
	.globl	_ZN3std2rt10lang_start17h2c2a12aecd0024c5E
	.p2align	4
	.type	_ZN3std2rt10lang_start17h2c2a12aecd0024c5E,@function
_ZN3std2rt10lang_start17h2c2a12aecd0024c5E:
	.cfi_startproc
	pushq	%rax
	.cfi_def_cfa_offset 16
	movl	%ecx, %eax
	movq	%rdx, %rcx
	movq	%rsi, %rdx
	movq	%rdi, (%rsp)
	movq	%rsp, %rdi
	leaq	.Lanon.383c74241c544687c5c6a58450342710.0(%rip), %rsi
	movzbl	%al, %r8d
	callq	*_ZN3std2rt19lang_start_internal17h00c7908c7c2f92b8E@GOTPCREL(%rip)
	popq	%rcx
	.cfi_def_cfa_offset 8
	retq
.Lfunc_end0:
	.size	_ZN3std2rt10lang_start17h2c2a12aecd0024c5E, .Lfunc_end0-_ZN3std2rt10lang_start17h2c2a12aecd0024c5E
	.cfi_endproc

	.section	".text._ZN3std2rt10lang_start28_$u7b$$u7b$closure$u7d$$u7d$17h4742f0a0f74a2961E","ax",@progbits
	.p2align	4
	.type	_ZN3std2rt10lang_start28_$u7b$$u7b$closure$u7d$$u7d$17h4742f0a0f74a2961E,@function
_ZN3std2rt10lang_start28_$u7b$$u7b$closure$u7d$$u7d$17h4742f0a0f74a2961E:
	.cfi_startproc
	pushq	%rax
	.cfi_def_cfa_offset 16
	movq	(%rdi), %rdi
	callq	_ZN3std3sys9backtrace28__rust_begin_short_backtrace17h7d8a7c3545d98b7aE
	callq	_ZN54_$LT$$LP$$RP$$u20$as$u20$std..process..Termination$GT$6report17h0f8392812982acfaE
	movzbl	%al, %eax
	popq	%rcx
	.cfi_def_cfa_offset 8
	retq
.Lfunc_end1:
	.size	_ZN3std2rt10lang_start28_$u7b$$u7b$closure$u7d$$u7d$17h4742f0a0f74a2961E, .Lfunc_end1-_ZN3std2rt10lang_start28_$u7b$$u7b$closure$u7d$$u7d$17h4742f0a0f74a2961E
	.cfi_endproc

	.section	.text._ZN3std3sys9backtrace28__rust_begin_short_backtrace17h7d8a7c3545d98b7aE,"ax",@progbits
	.p2align	4
	.type	_ZN3std3sys9backtrace28__rust_begin_short_backtrace17h7d8a7c3545d98b7aE,@function
_ZN3std3sys9backtrace28__rust_begin_short_backtrace17h7d8a7c3545d98b7aE:
	.cfi_startproc
	pushq	%rax
	.cfi_def_cfa_offset 16
	callq	_ZN4core3ops8function6FnOnce9call_once17h2b8d5c6b13cf8225E
	#APP
	#NO_APP
	popq	%rax
	.cfi_def_cfa_offset 8
	retq
.Lfunc_end2:
	.size	_ZN3std3sys9backtrace28__rust_begin_short_backtrace17h7d8a7c3545d98b7aE, .Lfunc_end2-_ZN3std3sys9backtrace28__rust_begin_short_backtrace17h7d8a7c3545d98b7aE
	.cfi_endproc

	.section	".text._ZN4core3fmt2rt38_$LT$impl$u20$core..fmt..Arguments$GT$16new_v1_formatted17hbdab816fcccdd8ecE","ax",@progbits
	.p2align	4
	.type	_ZN4core3fmt2rt38_$LT$impl$u20$core..fmt..Arguments$GT$16new_v1_formatted17hbdab816fcccdd8ecE,@function
_ZN4core3fmt2rt38_$LT$impl$u20$core..fmt..Arguments$GT$16new_v1_formatted17hbdab816fcccdd8ecE:
	.cfi_startproc
	movq	%rdx, -8(%rsp)
	movq	%rsi, %r10
	movq	-8(%rsp), %rsi
	movq	%rdi, %rax
	movq	8(%rsp), %rdx
	movq	%r10, (%rdi)
	movq	%rsi, 8(%rdi)
	movq	%r9, 32(%rdi)
	movq	%rdx, 40(%rdi)
	movq	%rcx, 16(%rdi)
	movq	%r8, 24(%rdi)
	retq
.Lfunc_end3:
	.size	_ZN4core3fmt2rt38_$LT$impl$u20$core..fmt..Arguments$GT$16new_v1_formatted17hbdab816fcccdd8ecE, .Lfunc_end3-_ZN4core3fmt2rt38_$LT$impl$u20$core..fmt..Arguments$GT$16new_v1_formatted17hbdab816fcccdd8ecE
	.cfi_endproc

	.section	.text._ZN4core3fmt2rt8Argument10new_binary17ha0b06f54c0982ae1E,"ax",@progbits
	.p2align	4
	.type	_ZN4core3fmt2rt8Argument10new_binary17ha0b06f54c0982ae1E,@function
_ZN4core3fmt2rt8Argument10new_binary17ha0b06f54c0982ae1E:
	.cfi_startproc
	movq	%rdi, %rax
	movq	%rsi, -16(%rsp)
	movq	_ZN4core3fmt3num50_$LT$impl$u20$core..fmt..Binary$u20$for$u20$u8$GT$3fmt17hd5c4e8e2e0dee37cE@GOTPCREL(%rip), %rcx
	movq	%rcx, -8(%rsp)
	movq	-16(%rsp), %rcx
	movq	%rcx, (%rdi)
	movq	-8(%rsp), %rcx
	movq	%rcx, 8(%rdi)
	retq
.Lfunc_end4:
	.size	_ZN4core3fmt2rt8Argument10new_binary17ha0b06f54c0982ae1E, .Lfunc_end4-_ZN4core3fmt2rt8Argument10new_binary17ha0b06f54c0982ae1E
	.cfi_endproc

	.section	.text._ZN4core3fmt2rt8Argument11new_display17h5b03441e5480f340E,"ax",@progbits
	.p2align	4
	.type	_ZN4core3fmt2rt8Argument11new_display17h5b03441e5480f340E,@function
_ZN4core3fmt2rt8Argument11new_display17h5b03441e5480f340E:
	.cfi_startproc
	movq	%rdi, %rax
	movq	%rsi, -16(%rsp)
	movq	_ZN4core3fmt3num3imp51_$LT$impl$u20$core..fmt..Display$u20$for$u20$u8$GT$3fmt17h71af0f1b11b0c758E@GOTPCREL(%rip), %rcx
	movq	%rcx, -8(%rsp)
	movq	-16(%rsp), %rcx
	movq	%rcx, (%rdi)
	movq	-8(%rsp), %rcx
	movq	%rcx, 8(%rdi)
	retq
.Lfunc_end5:
	.size	_ZN4core3fmt2rt8Argument11new_display17h5b03441e5480f340E, .Lfunc_end5-_ZN4core3fmt2rt8Argument11new_display17h5b03441e5480f340E
	.cfi_endproc

	.section	.text._ZN4core3fmt2rt8Argument11new_display17hf5dc4beadc75f2f4E,"ax",@progbits
	.p2align	4
	.type	_ZN4core3fmt2rt8Argument11new_display17hf5dc4beadc75f2f4E,@function
_ZN4core3fmt2rt8Argument11new_display17hf5dc4beadc75f2f4E:
	.cfi_startproc
	movq	%rdi, %rax
	movq	%rsi, -16(%rsp)
	movq	_ZN4core3fmt3num3imp51_$LT$impl$u20$core..fmt..Display$u20$for$u20$i8$GT$3fmt17h502035113c100c1bE@GOTPCREL(%rip), %rcx
	movq	%rcx, -8(%rsp)
	movq	-16(%rsp), %rcx
	movq	%rcx, (%rdi)
	movq	-8(%rsp), %rcx
	movq	%rcx, 8(%rdi)
	retq
.Lfunc_end6:
	.size	_ZN4core3fmt2rt8Argument11new_display17hf5dc4beadc75f2f4E, .Lfunc_end6-_ZN4core3fmt2rt8Argument11new_display17hf5dc4beadc75f2f4E
	.cfi_endproc

	.section	".text._ZN4core3ops8function6FnOnce40call_once$u7b$$u7b$vtable.shim$u7d$$u7d$17h5c704f04c565f946E","ax",@progbits
	.p2align	4
	.type	_ZN4core3ops8function6FnOnce40call_once$u7b$$u7b$vtable.shim$u7d$$u7d$17h5c704f04c565f946E,@function
_ZN4core3ops8function6FnOnce40call_once$u7b$$u7b$vtable.shim$u7d$$u7d$17h5c704f04c565f946E:
	.cfi_startproc
	pushq	%rax
	.cfi_def_cfa_offset 16
	movq	(%rdi), %rdi
	callq	_ZN4core3ops8function6FnOnce9call_once17hf4ad79b6e2905e71E
	popq	%rcx
	.cfi_def_cfa_offset 8
	retq
.Lfunc_end7:
	.size	_ZN4core3ops8function6FnOnce40call_once$u7b$$u7b$vtable.shim$u7d$$u7d$17h5c704f04c565f946E, .Lfunc_end7-_ZN4core3ops8function6FnOnce40call_once$u7b$$u7b$vtable.shim$u7d$$u7d$17h5c704f04c565f946E
	.cfi_endproc

	.section	.text._ZN4core3ops8function6FnOnce9call_once17h2b8d5c6b13cf8225E,"ax",@progbits
	.p2align	4
	.type	_ZN4core3ops8function6FnOnce9call_once17h2b8d5c6b13cf8225E,@function
_ZN4core3ops8function6FnOnce9call_once17h2b8d5c6b13cf8225E:
	.cfi_startproc
	pushq	%rax
	.cfi_def_cfa_offset 16
	callq	*%rdi
	popq	%rax
	.cfi_def_cfa_offset 8
	retq
.Lfunc_end8:
	.size	_ZN4core3ops8function6FnOnce9call_once17h2b8d5c6b13cf8225E, .Lfunc_end8-_ZN4core3ops8function6FnOnce9call_once17h2b8d5c6b13cf8225E
	.cfi_endproc

	.section	.text._ZN4core3ops8function6FnOnce9call_once17hf4ad79b6e2905e71E,"ax",@progbits
	.p2align	4
	.type	_ZN4core3ops8function6FnOnce9call_once17hf4ad79b6e2905e71E,@function
_ZN4core3ops8function6FnOnce9call_once17hf4ad79b6e2905e71E:
.Lfunc_begin0:
	.cfi_startproc
	.cfi_personality 155, DW.ref.rust_eh_personality
	.cfi_lsda 27, .Lexception0
	subq	$40, %rsp
	.cfi_def_cfa_offset 48
	movq	%rdi, 8(%rsp)
.Ltmp0:
	leaq	8(%rsp), %rdi
	callq	_ZN3std2rt10lang_start28_$u7b$$u7b$closure$u7d$$u7d$17h4742f0a0f74a2961E
.Ltmp1:
	movl	%eax, 4(%rsp)
	jmp	.LBB9_3
.LBB9_1:
	movq	24(%rsp), %rdi
	callq	_Unwind_Resume@PLT
.LBB9_2:
.Ltmp2:
	movq	%rax, %rcx
	movl	%edx, %eax
	movq	%rcx, 24(%rsp)
	movl	%eax, 32(%rsp)
	jmp	.LBB9_1
.LBB9_3:
	movl	4(%rsp), %eax
	addq	$40, %rsp
	.cfi_def_cfa_offset 8
	retq
.Lfunc_end9:
	.size	_ZN4core3ops8function6FnOnce9call_once17hf4ad79b6e2905e71E, .Lfunc_end9-_ZN4core3ops8function6FnOnce9call_once17hf4ad79b6e2905e71E
	.cfi_endproc
	.section	.gcc_except_table._ZN4core3ops8function6FnOnce9call_once17hf4ad79b6e2905e71E,"a",@progbits
	.p2align	2, 0x0
GCC_except_table9:
.Lexception0:
	.byte	255
	.byte	255
	.byte	1
	.uleb128 .Lcst_end0-.Lcst_begin0
.Lcst_begin0:
	.uleb128 .Ltmp0-.Lfunc_begin0
	.uleb128 .Ltmp1-.Ltmp0
	.uleb128 .Ltmp2-.Lfunc_begin0
	.byte	0
	.uleb128 .Ltmp1-.Lfunc_begin0
	.uleb128 .Lfunc_end9-.Ltmp1
	.byte	0
	.byte	0
.Lcst_end0:
	.p2align	2, 0x0

	.section	.text._ZN4main11inverse_bit17h87c416d8fd146690E,"ax",@progbits
	.p2align	4
	.type	_ZN4main11inverse_bit17h87c416d8fd146690E,@function
_ZN4main11inverse_bit17h87c416d8fd146690E:
	.cfi_startproc
	movb	%dil, %al
	xorb	$-1, %al
	retq
.Lfunc_end10:
	.size	_ZN4main11inverse_bit17h87c416d8fd146690E, .Lfunc_end10-_ZN4main11inverse_bit17h87c416d8fd146690E
	.cfi_endproc

	.section	.text._ZN4main15do_the_opposite17h183ef2171e014663E,"ax",@progbits
	.p2align	4
	.type	_ZN4main15do_the_opposite17h183ef2171e014663E,@function
_ZN4main15do_the_opposite17h183ef2171e014663E:
	.cfi_startproc
	movb	%dil, %al
	retq
.Lfunc_end11:
	.size	_ZN4main15do_the_opposite17h183ef2171e014663E, .Lfunc_end11-_ZN4main15do_the_opposite17h183ef2171e014663E
	.cfi_endproc

	.section	.text._ZN4main15inverse_add_one17hc2522ed02c3e29d9E,"ax",@progbits
	.p2align	4
	.type	_ZN4main15inverse_add_one17hc2522ed02c3e29d9E,@function
_ZN4main15inverse_add_one17hc2522ed02c3e29d9E:
	.cfi_startproc
	pushq	%rax
	.cfi_def_cfa_offset 16
	movb	%dil, %al
	movzbl	%al, %edi
	callq	_ZN4main11inverse_bit17h87c416d8fd146690E
	addb	$1, %al
	popq	%rcx
	.cfi_def_cfa_offset 8
	retq
.Lfunc_end12:
	.size	_ZN4main15inverse_add_one17hc2522ed02c3e29d9E, .Lfunc_end12-_ZN4main15inverse_add_one17hc2522ed02c3e29d9E
	.cfi_endproc

	.section	.text._ZN4main4main17h02cbda4dfa830c12E,"ax",@progbits
	.hidden	_ZN4main4main17h02cbda4dfa830c12E
	.globl	_ZN4main4main17h02cbda4dfa830c12E
	.p2align	4
	.type	_ZN4main4main17h02cbda4dfa830c12E,@function
_ZN4main4main17h02cbda4dfa830c12E:
	.cfi_startproc
	subq	$328, %rsp
	.cfi_def_cfa_offset 336
	movb	$15, 15(%rsp)
	movzbl	15(%rsp), %edi
	callq	_ZN4main11inverse_bit17h87c416d8fd146690E
	movb	%al, 101(%rsp)
	movzbl	15(%rsp), %edi
	callq	_ZN4main15inverse_add_one17hc2522ed02c3e29d9E
	movb	%al, 102(%rsp)
	movzbl	15(%rsp), %edi
	callq	_ZN4main15inverse_add_one17hc2522ed02c3e29d9E
	movzbl	%al, %edi
	callq	_ZN4main15do_the_opposite17h183ef2171e014663E
	movb	%al, 103(%rsp)
	leaq	15(%rsp), %rax
	movq	%rax, 64(%rsp)
	leaq	101(%rsp), %rax
	movq	%rax, 72(%rsp)
	leaq	102(%rsp), %rax
	movq	%rax, 80(%rsp)
	leaq	103(%rsp), %rax
	movq	%rax, 88(%rsp)
	movq	64(%rsp), %rsi
	leaq	216(%rsp), %rdi
	callq	_ZN4core3fmt2rt8Argument10new_binary17ha0b06f54c0982ae1E
	movq	64(%rsp), %rsi
	leaq	232(%rsp), %rdi
	callq	_ZN4core3fmt2rt8Argument11new_display17h5b03441e5480f340E
	movq	72(%rsp), %rsi
	leaq	248(%rsp), %rdi
	callq	_ZN4core3fmt2rt8Argument10new_binary17ha0b06f54c0982ae1E
	movq	72(%rsp), %rsi
	leaq	264(%rsp), %rdi
	callq	_ZN4core3fmt2rt8Argument11new_display17h5b03441e5480f340E
	movq	80(%rsp), %rsi
	leaq	280(%rsp), %rdi
	callq	_ZN4core3fmt2rt8Argument10new_binary17ha0b06f54c0982ae1E
	movq	80(%rsp), %rsi
	leaq	296(%rsp), %rdi
	callq	_ZN4core3fmt2rt8Argument11new_display17h5b03441e5480f340E
	movq	88(%rsp), %rsi
	leaq	312(%rsp), %rdi
	callq	_ZN4core3fmt2rt8Argument11new_display17hf5dc4beadc75f2f4E
	movq	216(%rsp), %rax
	movq	%rax, 104(%rsp)
	movq	224(%rsp), %rax
	movq	%rax, 112(%rsp)
	movq	232(%rsp), %rax
	movq	%rax, 120(%rsp)
	movq	240(%rsp), %rax
	movq	%rax, 128(%rsp)
	movq	248(%rsp), %rax
	movq	%rax, 136(%rsp)
	movq	256(%rsp), %rax
	movq	%rax, 144(%rsp)
	movq	264(%rsp), %rax
	movq	%rax, 152(%rsp)
	movq	272(%rsp), %rax
	movq	%rax, 160(%rsp)
	movq	280(%rsp), %rax
	movq	%rax, 168(%rsp)
	movq	288(%rsp), %rax
	movq	%rax, 176(%rsp)
	movq	296(%rsp), %rax
	movq	%rax, 184(%rsp)
	movq	304(%rsp), %rax
	movq	%rax, 192(%rsp)
	movq	312(%rsp), %rax
	movq	%rax, 200(%rsp)
	movq	320(%rsp), %rax
	movq	%rax, 208(%rsp)
	leaq	16(%rsp), %rdi
	leaq	.Lanon.383c74241c544687c5c6a58450342710.9(%rip), %rsi
	movl	$11, %edx
	leaq	104(%rsp), %rcx
	movl	$7, %r8d
	leaq	.Lanon.383c74241c544687c5c6a58450342710.10(%rip), %r9
	movq	$10, (%rsp)
	callq	_ZN4core3fmt2rt38_$LT$impl$u20$core..fmt..Arguments$GT$16new_v1_formatted17hbdab816fcccdd8ecE
	leaq	16(%rsp), %rdi
	callq	*_ZN3std2io5stdio6_print17h3fda082316a9dfcbE@GOTPCREL(%rip)
	addq	$328, %rsp
	.cfi_def_cfa_offset 8
	retq
.Lfunc_end13:
	.size	_ZN4main4main17h02cbda4dfa830c12E, .Lfunc_end13-_ZN4main4main17h02cbda4dfa830c12E
	.cfi_endproc

	.section	".text._ZN54_$LT$$LP$$RP$$u20$as$u20$std..process..Termination$GT$6report17h0f8392812982acfaE","ax",@progbits
	.p2align	4
	.type	_ZN54_$LT$$LP$$RP$$u20$as$u20$std..process..Termination$GT$6report17h0f8392812982acfaE,@function
_ZN54_$LT$$LP$$RP$$u20$as$u20$std..process..Termination$GT$6report17h0f8392812982acfaE:
	.cfi_startproc
	xorl	%eax, %eax
	retq
.Lfunc_end14:
	.size	_ZN54_$LT$$LP$$RP$$u20$as$u20$std..process..Termination$GT$6report17h0f8392812982acfaE, .Lfunc_end14-_ZN54_$LT$$LP$$RP$$u20$as$u20$std..process..Termination$GT$6report17h0f8392812982acfaE
	.cfi_endproc

	.section	.text.main,"ax",@progbits
	.globl	main
	.p2align	4
	.type	main,@function
main:
	.cfi_startproc
	pushq	%rax
	.cfi_def_cfa_offset 16
	movq	%rsi, %rdx
	movslq	%edi, %rsi
	leaq	_ZN4main4main17h02cbda4dfa830c12E(%rip), %rdi
	xorl	%ecx, %ecx
	callq	_ZN3std2rt10lang_start17h2c2a12aecd0024c5E
	popq	%rcx
	.cfi_def_cfa_offset 8
	retq
.Lfunc_end15:
	.size	main, .Lfunc_end15-main
	.cfi_endproc

	.type	.Lanon.383c74241c544687c5c6a58450342710.0,@object
	.section	.data.rel.ro..Lanon.383c74241c544687c5c6a58450342710.0,"aw",@progbits
	.p2align	3, 0x0
.Lanon.383c74241c544687c5c6a58450342710.0:
	.asciz	"\000\000\000\000\000\000\000\000\b\000\000\000\000\000\000\000\b\000\000\000\000\000\000"
	.quad	_ZN4core3ops8function6FnOnce40call_once$u7b$$u7b$vtable.shim$u7d$$u7d$17h5c704f04c565f946E
	.quad	_ZN3std2rt10lang_start28_$u7b$$u7b$closure$u7d$$u7d$17h4742f0a0f74a2961E
	.quad	_ZN3std2rt10lang_start28_$u7b$$u7b$closure$u7d$$u7d$17h4742f0a0f74a2961E
	.size	.Lanon.383c74241c544687c5c6a58450342710.0, 48

	.type	.Lanon.383c74241c544687c5c6a58450342710.1,@object
	.section	.rodata..Lanon.383c74241c544687c5c6a58450342710.1,"a",@progbits
.Lanon.383c74241c544687c5c6a58450342710.1:
	.ascii	"Inverse of "
	.size	.Lanon.383c74241c544687c5c6a58450342710.1, 11

	.type	.Lanon.383c74241c544687c5c6a58450342710.2,@object
	.section	.rodata..Lanon.383c74241c544687c5c6a58450342710.2,"a",@progbits
.Lanon.383c74241c544687c5c6a58450342710.2:
	.byte	40
	.size	.Lanon.383c74241c544687c5c6a58450342710.2, 1

	.type	.Lanon.383c74241c544687c5c6a58450342710.3,@object
	.section	.rodata..Lanon.383c74241c544687c5c6a58450342710.3,"a",@progbits
.Lanon.383c74241c544687c5c6a58450342710.3:
	.ascii	") is "
	.size	.Lanon.383c74241c544687c5c6a58450342710.3, 5

	.type	.Lanon.383c74241c544687c5c6a58450342710.4,@object
	.section	.rodata.cst16,"aM",@progbits,16
.Lanon.383c74241c544687c5c6a58450342710.4:
	.ascii	") and plus 1 is "
	.size	.Lanon.383c74241c544687c5c6a58450342710.4, 16

	.type	.Lanon.383c74241c544687c5c6a58450342710.5,@object
	.section	.rodata..Lanon.383c74241c544687c5c6a58450342710.5,"a",@progbits
.Lanon.383c74241c544687c5c6a58450342710.5:
	.ascii	") which is the two_complement of unsigned "
	.size	.Lanon.383c74241c544687c5c6a58450342710.5, 42

	.type	.Lanon.383c74241c544687c5c6a58450342710.6,@object
	.section	.rodata..Lanon.383c74241c544687c5c6a58450342710.6,"a",@progbits
.Lanon.383c74241c544687c5c6a58450342710.6:
	.ascii	".But as signed same "
	.size	.Lanon.383c74241c544687c5c6a58450342710.6, 20

	.type	.Lanon.383c74241c544687c5c6a58450342710.7,@object
	.section	.rodata..Lanon.383c74241c544687c5c6a58450342710.7,"a",@progbits
.Lanon.383c74241c544687c5c6a58450342710.7:
	.ascii	") become "
	.size	.Lanon.383c74241c544687c5c6a58450342710.7, 9

	.type	.Lanon.383c74241c544687c5c6a58450342710.8,@object
	.section	.rodata..Lanon.383c74241c544687c5c6a58450342710.8,"a",@progbits
.Lanon.383c74241c544687c5c6a58450342710.8:
	.ascii	"  \n"
	.size	.Lanon.383c74241c544687c5c6a58450342710.8, 3

	.type	.Lanon.383c74241c544687c5c6a58450342710.9,@object
	.section	.data.rel.ro..Lanon.383c74241c544687c5c6a58450342710.9,"aw",@progbits
	.p2align	3, 0x0
.Lanon.383c74241c544687c5c6a58450342710.9:
	.quad	.Lanon.383c74241c544687c5c6a58450342710.1
	.asciz	"\013\000\000\000\000\000\000"
	.quad	.Lanon.383c74241c544687c5c6a58450342710.2
	.asciz	"\001\000\000\000\000\000\000"
	.quad	.Lanon.383c74241c544687c5c6a58450342710.3
	.asciz	"\005\000\000\000\000\000\000"
	.quad	.Lanon.383c74241c544687c5c6a58450342710.2
	.asciz	"\001\000\000\000\000\000\000"
	.quad	.Lanon.383c74241c544687c5c6a58450342710.4
	.asciz	"\020\000\000\000\000\000\000"
	.quad	.Lanon.383c74241c544687c5c6a58450342710.2
	.asciz	"\001\000\000\000\000\000\000"
	.quad	.Lanon.383c74241c544687c5c6a58450342710.5
	.asciz	"*\000\000\000\000\000\000"
	.quad	.Lanon.383c74241c544687c5c6a58450342710.6
	.asciz	"\024\000\000\000\000\000\000"
	.quad	.Lanon.383c74241c544687c5c6a58450342710.2
	.asciz	"\001\000\000\000\000\000\000"
	.quad	.Lanon.383c74241c544687c5c6a58450342710.7
	.asciz	"\t\000\000\000\000\000\000"
	.quad	.Lanon.383c74241c544687c5c6a58450342710.8
	.asciz	"\003\000\000\000\000\000\000"
	.size	.Lanon.383c74241c544687c5c6a58450342710.9, 176

	.type	.Lanon.383c74241c544687c5c6a58450342710.10,@object
	.section	.rodata..Lanon.383c74241c544687c5c6a58450342710.10,"a",@progbits
	.p2align	3, 0x0
.Lanon.383c74241c544687c5c6a58450342710.10:
	.asciz	"\002\000\000\000\000\000\000\000\000\000\000\000\000\000\000\000\000\000\b\000\000\000\000\000\000\000\000\000\000\000\000\000\000\000\000\000\000\000\000\000 \000\000\351\000\000\000\000\002\000\000\000\000\000\000\000\000\000\000\000\000\000\000\000\002\000\000\000\000\000\000\000\000\000\000\000\000\000\000\000\001\000\000\000\000\000\000\000 \000\000\340\000\000\000\000\002\000\000\000\000\000\000\000\000\000\000\000\000\000\000\000\000\000\b\000\000\000\000\000\000\000\000\000\000\000\000\000\002\000\000\000\000\000\000\000 \000\000\351\000\000\000\000\002\000\000\000\000\000\000\000\000\000\000\000\000\000\000\000\002\000\000\000\000\000\000\000\000\000\000\000\000\000\000\000\003\000\000\000\000\000\000\000 \000\000\340\000\000\000\000\002\000\000\000\000\000\000\000\000\000\000\000\000\000\000\000\000\000\b\000\000\000\000\000\000\000\000\000\000\000\000\000\004\000\000\000\000\000\000\000 \000\000\351\000\000\000\000\002\000\000\000\000\000\000\000\000\000\000\000\000\000\000\000\002\000\000\000\000\000\000\000\000\000\000\000\000\000\000\000\005\000\000\000\000\000\000\000 \000\000\340\000\000\000\000\002\000\000\000\000\000\000\000\000\000\000\000\000\000\000\000\002\000\000\000\000\000\000\000\000\000\000\000\000\000\000\000\001\000\000\000\000\000\000\000 \000\000\340\000\000\000\000\002\000\000\000\000\000\000\000\000\000\000\000\000\000\000\000\000\000\b\000\000\000\000\000\000\000\000\000\000\000\000\000\004\000\000\000\000\000\000\000 \000\000\351\000\000\000\000\002\000\000\000\000\000\000\000\000\000\000\000\000\000\000\000\002\000\000\000\000\000\000\000\000\000\000\000\000\000\000\000\005\000\000\000\000\000\000\000 \000\000\340\000\000\000\000\002\000\000\000\000\000\000\000\000\000\000\000\000\000\000\000\002\000\000\000\000\000\000\000\000\000\000\000\000\000\000\000\006\000\000\000\000\000\000\000 \000\000\340\000\000\000"
	.size	.Lanon.383c74241c544687c5c6a58450342710.10, 480

	.hidden	DW.ref.rust_eh_personality
	.weak	DW.ref.rust_eh_personality
	.section	.data.DW.ref.rust_eh_personality,"awG",@progbits,DW.ref.rust_eh_personality,comdat
	.p2align	3, 0x0
	.type	DW.ref.rust_eh_personality,@object
	.size	DW.ref.rust_eh_personality, 8
DW.ref.rust_eh_personality:
	.quad	rust_eh_personality
	.ident	"rustc version 1.92.0 (ded5c06cf 2025-12-08)"
	.section	".note.GNU-stack","",@progbits
